(dp0
S'world'
p1
(dp2
S'main_robot_car'
p3
S'<car.IteratedBestResponseCar object at 0x13a3d2190>'
p4
sS'lanes'
p5
(lp6
S'<lane.StraightLane object at 0x1278b8310>'
p7
aS'<lane.StraightLane object at 0x13a3d2d10>'
p8
asS'cars'
p9
(dp10
S'<car.IteratedBestResponseCar object at 0x13a3d2190>'
p11
(dp12
S'name'
p13
S'robot'
p14
sS'is_user_controlled'
p15
I00
sS'is_follower'
p16
I00
sS'bounds'
p17
(lp18
(F-0.17333333333333334
F0.17333333333333334
tp19
a(F-0.7024
F0.3512
tp20
asS'horizon'
p21
I8
sS'dt'
p22
F0.1
sS'is_robot'
p23
I01
ssS'<car.FollowerCar object at 0x13a56ae10>'
p24
(dp25
g13
S'human'
p26
sg15
I00
sg16
I01
sg17
g18
sg21
I8
sg22
F0.1
sg23
I00
sssS'main_human_car'
p27
S'<car.FollowerCar object at 0x13a56ae10>'
p28
sS'roads'
p29
(lp30
S'<lane.StraightLane object at 0x1278b8310>'
p31
asS'fences'
p32
(lp33
S'<lane.Fence object at 0x13a3d25d0>'
p34
aS'<lane.Fence object at 0x13a3d2c50>'
p35
assS'rewards'
p36
(dp37
S'<car.IteratedBestResponseCar object at 0x13a3d2190>'
p38
(dp39
S'reward_h'
p40
(dp41
S'fence_sigmoid'
p42
I01
sS'fine_behind'
p43
I01
sS'car_control_bounds'
p44
g18
sS'w_control'
p45
F-0.1
sS'w_bounded_control'
p46
F-50.0
sS'w_other_truck_trajs'
p47
(lp48
sS'speed'
p49
F1.1243243243243244
sS'steering_bound'
p50
F0.17333333333333334
sS'w_lanes'
p51
(lp52
F4.0
aF1.0
asS'w_speed'
p53
F-10.0
sS'w_fences'
p54
(lp55
F-50.0
aF-50.0
asS'w_behind'
p56
F-3.0
sS'w_other_car_trajs'
p57
(lp58
F-60.0
asS'acceleration_bound'
p59
F0.3512
ssS'reward'
p60
(dp61
g42
I01
sg43
I00
sg44
g18
sg45
F-0.1
sg46
F-50.0
sg47
(lp62
sg49
F1.2297297297297298
sg50
F0.17333333333333334
sg51
g52
sg53
F-10.0
sg54
(lp63
F-50.0
aF-50.0
asg56
F-3.0
sg57
(lp64
F-60.0
asg59
F0.3512
sssS'<car.FollowerCar object at 0x13a56ae10>'
p65
(dp66
S'reward_r'
p67
(dp68
g42
I01
sg43
I00
sg44
g18
sg45
F-0.1
sg46
F-50.0
sg47
(lp69
sg49
F1.2297297297297298
sg50
F0.17333333333333334
sg51
g52
sg53
F-10.0
sg54
(lp70
F-50.0
aF-50.0
asg56
F-3.0
sg57
(lp71
F-60.0
asg59
F0.3512
ssg60
(dp72
g42
I01
sg43
I01
sg44
g18
sg45
F-0.1
sg46
F-50.0
sg47
(lp73
sg49
F1.1243243243243244
sg50
F0.17333333333333334
sg51
g52
sg53
F-10.0
sg54
(lp74
F-50.0
aF-50.0
asg56
F-3.0
sg57
(lp75
F-60.0
asg59
F0.3512
ssssS'config'
p76
(dp77
S'HORIZON'
p78
I8
sS'NESTEDMAX_MAXITER_INNER'
p79
I20
sS'STRAT_DIM'
p80
I4
sS'STRATEGIC_VALUE_4D_DATA_DIR'
p81
S'assets/data/mat/strategic_value_4d_offgrid_projection_vrel/'
p82
sS'STRATEGIC_VALUE_3D_DATA_DIR'
p83
S'assets/data/mat/strategic_value_3d_new/'
p84
sS'HUMAN_BETA'
p85
S'1'
p86
sS'OPT_TIMEOUT'
p87
Finf
sS'STRATEGIC_VALUE_SCALE'
p88
F0.0
sS'INIT_PLAN_SCHEME'
p89
(dp90
S'truck'
p91
S'None'
p92
sg14
S'maintain_speed_lsr'
p93
sg26
g93
ssS'USE_SECOND_ORDER'
p94
I00
ss.