(dp0
S'world'
p1
(dp2
S'main_robot_car'
p3
S'<car.NestedCar object at 0x139ffd650>'
p4
sS'lanes'
p5
(lp6
S'<lane.StraightLane object at 0x106225050>'
p7
aS'<lane.StraightLane object at 0x139e7a110>'
p8
asS'cars'
p9
(dp10
S'<car.NestedCar object at 0x139ffd650>'
p11
(dp12
S'name'
p13
S'robot'
p14
sS'is_user_controlled'
p15
I00
sS'is_follower'
p16
I00
sS'bounds'
p17
(lp18
(F-0.13
F0.13
tp19
a(F-1.0536
F0.2634
tp20
asS'horizon'
p21
I8
sS'dt'
p22
F0.1
sS'is_robot'
p23
I01
ssS'<car.SimpleOptimizerCar object at 0x139e9f610>'
p24
(dp25
g13
S'human'
p26
sg15
I00
sg16
I00
sg17
g18
sg21
I8
sg22
F0.1
sg23
I01
sssS'main_human_car'
p27
S'<car.SimpleOptimizerCar object at 0x139e9f610>'
p28
sS'roads'
p29
(lp30
S'<lane.StraightLane object at 0x106225050>'
p31
asS'fences'
p32
(lp33
S'<lane.Fence object at 0x127340390>'
p34
aS'<lane.Fence object at 0x1381d1f90>'
p35
assS'rewards'
p36
(dp37
S'<car.NestedCar object at 0x139ffd650>'
p38
(dp39
S'reward_h'
p40
(dp41
S'fence_sigmoid'
p42
I01
sS'fine_behind'
p43
I01
sS'car_control_bounds'
p44
g18
sS'w_control'
p45
F-0.1
sS'w_bounded_control'
p46
F-50.0
sS'w_other_truck_trajs'
p47
(lp48
sS'speed'
p49
F1.1243243243243244
sS'steering_bound'
p50
F0.13
sS'w_lanes'
p51
(lp52
F8.0
aF1.0
asS'w_speed'
p53
F-10.0
sS'w_fences'
p54
(lp55
F-50.0
aF-50.0
asS'w_behind'
p56
I-25
sS'w_other_car_trajs'
p57
(lp58
F-80.0
asS'acceleration_bound'
p59
F0.2634
ssS'reward'
p60
(dp61
g42
I01
sg43
I00
sg44
g18
sg45
F-0.1
sg46
F-50.0
sg47
(lp62
sg49
F1.2297297297297298
sg50
F0.13
sg51
(lp63
F16.447
aF1.0
asg53
F-10.0
sg54
(lp64
F-50.0
aF-50.0
asg56
I-25
sg57
(lp65
F-80.0
asg59
F0.2634
sssS'<car.SimpleOptimizerCar object at 0x139e9f610>'
p66
(dp67
S'reward_r'
p68
(dp69
g42
I01
sg43
I00
sg44
g18
sg45
F-0.1
sg46
F-50.0
sg47
(lp70
sg49
F1.2297297297297298
sg50
F0.13
sg51
g63
sg53
F-10.0
sg54
(lp71
F-50.0
aF-50.0
asg56
I-25
sg57
(lp72
F-80.0
asg59
F0.2634
ssg60
(dp73
g42
I01
sg43
I01
sg44
g18
sg45
F-0.1
sg46
F-50.0
sg47
(lp74
sg49
F1.1243243243243244
sg50
F0.13
sg51
g63
sg53
F-10.0
sg54
(lp75
F-50.0
aF-50.0
asg56
I-25
sg57
(lp76
sg59
F0.2634
ssssS'config'
p77
(dp78
S'HORIZON'
p79
I8
sS'NESTEDMAX_MAXITER_INNER'
p80
I20
sS'STRAT_DIM'
p81
I4
sS'STRATEGIC_VALUE_4D_DATA_DIR'
p82
S'assets/data/mat/strategic_value_4d_offgrid_projection_vrel/'
p83
sS'STRATEGIC_VALUE_3D_DATA_DIR'
p84
S'assets/data/mat/strategic_value_3d_new/'
p85
sS'HUMAN_BETA'
p86
NsS'OPT_TIMEOUT'
p87
Finf
sS'STRATEGIC_VALUE_SCALE'
p88
F0.0
sS'INIT_PLAN_SCHEME'
p89
(dp90
S'truck'
p91
S'None'
p92
sg14
S'maintain_speed_lsr_and_prev_opt'
p93
sg26
g93
ssS'USE_SECOND_ORDER'
p94
I01
ss.