(dp0
S'world'
p1
(dp2
S'main_robot_car'
p3
S'<car.IteratedBestResponseCar object at 0x13db23a90>'
p4
sS'lanes'
p5
(lp6
S'<lane.StraightLane object at 0x13bd2a050>'
p7
aS'<lane.StraightLane object at 0x12ae7c410>'
p8
asS'cars'
p9
(dp10
S'<car.Truck object at 0x13df02f10>'
p11
(dp12
S'name'
p13
S'truck'
p14
sS'is_user_controlled'
p15
I00
sS'is_follower'
p16
I00
sS'bounds'
p17
(lp18
(F-0.13
F0.13
tp19
a(F-1.0536
F0.2634
tp20
asS'horizon'
p21
I8
sS'dt'
p22
F0.1
sS'is_robot'
p23
I00
ssS'<car.FollowerCar object at 0x13da27c90>'
p24
(dp25
g13
S'human'
p26
sg15
I00
sg16
I01
sg17
g18
sg21
I8
sg22
F0.1
sg23
I00
ssS'<car.IteratedBestResponseCar object at 0x13db23a90>'
p27
(dp28
g13
S'robot'
p29
sg15
I00
sg16
I00
sg17
g18
sg21
I8
sg22
F0.1
sg23
I01
sssS'main_human_car'
p30
S'<car.FollowerCar object at 0x13da27c90>'
p31
sS'roads'
p32
(lp33
S'<lane.StraightLane object at 0x13bd2a050>'
p34
asS'fences'
p35
(lp36
S'<lane.Fence object at 0x13db23950>'
p37
aS'<lane.Fence object at 0x13db238d0>'
p38
assS'rewards'
p39
(dp40
S'<car.Truck object at 0x13df02f10>'
p41
(dp42
sS'<car.FollowerCar object at 0x13da27c90>'
p43
(dp44
S'reward_r'
p45
(dp46
S'fence_sigmoid'
p47
I01
sS'fine_behind'
p48
I00
sS'car_control_bounds'
p49
g18
sS'w_control'
p50
F-0.1
sS'w_bounded_control'
p51
F-50.0
sS'w_other_truck_trajs'
p52
(lp53
F-40.0
asS'speed'
p54
F1.2297297297297298
sS'steering_bound'
p55
F0.13
sS'w_lanes'
p56
(lp57
F4.0
aF1.0
asS'w_speed'
p58
F-10.0
sS'w_fences'
p59
(lp60
F-50.0
aF-50.0
asS'w_behind'
p61
F-3.0
sS'w_other_car_trajs'
p62
(lp63
F-80.0
asS'acceleration_bound'
p64
F0.2634
ssS'reward'
p65
(dp66
g47
I01
sg48
I01
sg49
g18
sg50
F-0.1
sg51
F-50.0
sg52
(lp67
F-40.0
asg54
F1.1243243243243244
sg55
F0.13
sg56
g57
sg58
F-10.0
sg59
(lp68
F-50.0
aF-50.0
asg61
F-3.0
sg62
(lp69
F-80.0
asg64
F0.2634
sssS'<car.IteratedBestResponseCar object at 0x13db23a90>'
p70
(dp71
S'reward_h'
p72
(dp73
g47
I01
sg48
I01
sg49
g18
sg50
F-0.1
sg51
F-50.0
sg52
(lp74
F-40.0
asg54
F1.1243243243243244
sg55
F0.13
sg56
g57
sg58
F-10.0
sg59
(lp75
F-50.0
aF-50.0
asg61
F-3.0
sg62
(lp76
F-80.0
asg64
F0.2634
ssg65
(dp77
g47
I01
sg48
I00
sg49
g18
sg50
F-0.1
sg51
F-50.0
sg52
(lp78
F-40.0
asg54
F1.2297297297297298
sg55
F0.13
sg56
g57
sg58
F-10.0
sg59
(lp79
F-50.0
aF-50.0
asg61
F-3.0
sg62
(lp80
F-80.0
asg64
F0.2634
ssssS'config'
p81
(dp82
S'HORIZON'
p83
I8
sS'NESTEDMAX_MAXITER_INNER'
p84
I20
sS'STRAT_DIM'
p85
I5
sS'STRATEGIC_VALUE_4D_DATA_DIR'
p86
S'assets/data/mat/strategic_value_4d_offgrid_projection_vrel/'
p87
sS'STRATEGIC_VALUE_3D_DATA_DIR'
p88
S'assets/data/mat/strategic_value_3d_new/'
p89
sS'HUMAN_BETA'
p90
NsS'OPT_TIMEOUT'
p91
Finf
sS'STRATEGIC_VALUE_SCALE'
p92
F0.0
sS'INIT_PLAN_SCHEME'
p93
(dp94
g14
S'None'
p95
sg29
S'maintain_speed_lsr_and_prev_opt'
p96
sg26
g96
ssS'USE_SECOND_ORDER'
p97
I01
ss.