(dp0
S'world'
p1
(dp2
S'main_robot_car'
p3
S'<car.IteratedBestResponseCar object at 0x1438f5b90>'
p4
sS'lanes'
p5
(lp6
S'<lane.StraightLane object at 0x1438f5a50>'
p7
aS'<lane.StraightLane object at 0x1438f5990>'
p8
asS'cars'
p9
(dp10
S'<car.IteratedBestResponseCar object at 0x1438f5b90>'
p11
(dp12
S'name'
p13
S'robot'
p14
sS'is_user_controlled'
p15
I00
sS'is_follower'
p16
I00
sS'bounds'
p17
(lp18
(F-0.13
F0.13
tp19
a(F-1.0536
F0.2634
tp20
asS'horizon'
p21
I8
sS'dt'
p22
F0.1
sS'is_robot'
p23
I01
ssS'<car.FollowerCar object at 0x143970290>'
p24
(dp25
g13
S'human'
p26
sg15
I00
sg16
I01
sg17
g18
sg21
I8
sg22
F0.1
sg23
I00
sssS'main_human_car'
p27
S'<car.FollowerCar object at 0x143970290>'
p28
sS'roads'
p29
(lp30
S'<lane.StraightLane object at 0x1438f5a50>'
p31
asS'fences'
p32
(lp33
S'<lane.Fence object at 0x1438f5ad0>'
p34
aS'<lane.Fence object at 0x1438f5b10>'
p35
assS'rewards'
p36
(dp37
S'<car.IteratedBestResponseCar object at 0x1438f5b90>'
p38
(dp39
S'reward_h'
p40
(dp41
S'fence_sigmoid'
p42
I01
sS'fine_behind'
p43
I01
sS'car_control_bounds'
p44
g18
sS'w_control'
p45
F-0.1
sS'w_bounded_control'
p46
F-50.0
sS'w_other_truck_trajs'
p47
(lp48
sS'speed'
p49
F1.1243243243243244
sS'steering_bound'
p50
F0.13
sS'w_lanes'
p51
(lp52
F8.0
aF1.0
asS'w_speed'
p53
F-10.0
sS'w_fences'
p54
(lp55
F-50.0
aF-50.0
asS'w_behind'
p56
I-25
sS'w_other_car_trajs'
p57
(lp58
F-80.0
asS'acceleration_bound'
p59
F0.2634
ssS'reward'
p60
(dp61
g42
I01
sg43
I00
sg44
g18
sg45
F-0.1
sg46
F-50.0
sg47
(lp62
sg49
F1.2297297297297298
sg50
F0.13
sg51
(lp63
F16.447
aF1.0
asg53
F-10.0
sg54
(lp64
F-50.0
aF-50.0
asg56
I-25
sg57
(lp65
F-80.0
asg59
F0.2634
sssS'<car.FollowerCar object at 0x143970290>'
p66
(dp67
S'reward_r'
p68
(dp69
g42
I01
sg43
I00
sg44
g18
sg45
F-0.1
sg46
F-50.0
sg47
(lp70
sg49
F1.2297297297297298
sg50
F0.13
sg51
g63
sg53
F-10.0
sg54
(lp71
F-50.0
aF-50.0
asg56
I-25
sg57
(lp72
F-80.0
asg59
F0.2634
ssg60
(dp73
g42
I01
sg43
I01
sg44
g18
sg45
F-0.1
sg46
F-50.0
sg47
(lp74
sg49
F1.1243243243243244
sg50
F0.13
sg51
(lp75
F4.0
aF1.0
asg53
F-10.0
sg54
(lp76
F-50.0
aF-50.0
asg56
I-25
sg57
(lp77
F-80.0
asg59
F0.2634
ssssS'config'
p78
(dp79
S'HORIZON'
p80
I8
sS'NESTEDMAX_MAXITER_INNER'
p81
I20
sS'STRAT_DIM'
p82
I4
sS'STRATEGIC_VALUE_4D_DATA_DIR'
p83
S'assets/data/mat/strategic_value_4d_offgrid_projection_vrel/'
p84
sS'STRATEGIC_VALUE_3D_DATA_DIR'
p85
S'assets/data/mat/strategic_value_3d_new/'
p86
sS'HUMAN_BETA'
p87
NsS'OPT_TIMEOUT'
p88
Finf
sS'STRATEGIC_VALUE_SCALE'
p89
F0.0
sS'INIT_PLAN_SCHEME'
p90
(dp91
S'truck'
p92
S'None'
p93
sg14
S'maintain_speed_lsr_and_prev_opt'
p94
sg26
g94
ssS'USE_SECOND_ORDER'
p95
I01
ss.