(dp0
S'world'
p1
(dp2
S'main_robot_car'
p3
S'<car.NestedCar object at 0x13db53a10>'
p4
sS'lanes'
p5
(lp6
S'<lane.StraightLane object at 0x12aeb0390>'
p7
aS'<lane.StraightLane object at 0x13db538d0>'
p8
asS'cars'
p9
(dp10
S'<car.NestedCar object at 0x13db53a10>'
p11
(dp12
S'name'
p13
S'robot'
p14
sS'is_user_controlled'
p15
I00
sS'is_follower'
p16
I00
sS'bounds'
p17
(lp18
(F-0.17333333333333334
F0.17333333333333334
tp19
a(F-1.4048
F0.3512
tp20
asS'horizon'
p21
I8
sS'dt'
p22
F0.1
sS'is_robot'
p23
I01
ssS'<car.Truck object at 0x13df32fd0>'
p24
(dp25
g13
S'truck'
p26
sg15
I00
sg16
I00
sg17
g18
sg21
I8
sg22
F0.1
sg23
I00
ssS'<car.FollowerCar object at 0x13da04290>'
p27
(dp28
g13
S'human'
p29
sg15
I00
sg16
I01
sg17
g18
sg21
I8
sg22
F0.1
sg23
I00
sssS'main_human_car'
p30
S'<car.FollowerCar object at 0x13da04290>'
p31
sS'roads'
p32
(lp33
S'<lane.StraightLane object at 0x12aeb0390>'
p34
asS'fences'
p35
(lp36
S'<lane.Fence object at 0x13db53810>'
p37
aS'<lane.Fence object at 0x13db53a50>'
p38
assS'rewards'
p39
(dp40
S'<car.NestedCar object at 0x13db53a10>'
p41
(dp42
S'reward_h'
p43
(dp44
S'fence_sigmoid'
p45
I01
sS'fine_behind'
p46
I01
sS'car_control_bounds'
p47
g18
sS'w_control'
p48
F-0.1
sS'w_bounded_control'
p49
F-50.0
sS'w_other_truck_trajs'
p50
(lp51
F-40.0
asS'speed'
p52
F1.1243243243243244
sS'steering_bound'
p53
F0.17333333333333334
sS'w_lanes'
p54
(lp55
F4.0
aF1.0
asS'w_speed'
p56
F-10.0
sS'w_fences'
p57
(lp58
F-50.0
aF-50.0
asS'w_behind'
p59
F-3.0
sS'w_other_car_trajs'
p60
(lp61
F-60.0
asS'acceleration_bound'
p62
F0.3512
ssS'reward'
p63
(dp64
g45
I01
sg46
I00
sg47
g18
sg48
F-0.1
sg49
F-50.0
sg50
(lp65
F-40.0
asg52
F1.2297297297297298
sg53
F0.17333333333333334
sg54
g55
sg56
F-10.0
sg57
(lp66
F-50.0
aF-50.0
asg59
F-3.0
sg60
(lp67
F-60.0
asg62
F0.3512
sssS'<car.Truck object at 0x13df32fd0>'
p68
(dp69
sS'<car.FollowerCar object at 0x13da04290>'
p70
(dp71
S'reward_r'
p72
(dp73
g45
I01
sg46
I00
sg47
g18
sg48
F-0.1
sg49
F-50.0
sg50
(lp74
F-40.0
asg52
F1.2297297297297298
sg53
F0.17333333333333334
sg54
g55
sg56
F-10.0
sg57
(lp75
F-50.0
aF-50.0
asg59
F-3.0
sg60
(lp76
F-60.0
asg62
F0.3512
ssg63
(dp77
g45
I01
sg46
I01
sg47
g18
sg48
F-0.1
sg49
F-50.0
sg50
(lp78
F-40.0
asg52
F1.1243243243243244
sg53
F0.17333333333333334
sg54
g55
sg56
F-10.0
sg57
(lp79
F-50.0
aF-50.0
asg59
F-3.0
sg60
(lp80
F-60.0
asg62
F0.3512
ssssS'config'
p81
(dp82
S'HORIZON'
p83
I8
sS'NESTEDMAX_MAXITER_INNER'
p84
I20
sS'STRAT_DIM'
p85
I5
sS'STRATEGIC_VALUE_4D_DATA_DIR'
p86
S'assets/data/mat/strategic_value_4d_offgrid_projection_vrel/'
p87
sS'STRATEGIC_VALUE_3D_DATA_DIR'
p88
S'assets/data/mat/strategic_value_3d_new/'
p89
sS'HUMAN_BETA'
p90
NsS'OPT_TIMEOUT'
p91
Finf
sS'STRATEGIC_VALUE_SCALE'
p92
F0.0
sS'INIT_PLAN_SCHEME'
p93
(dp94
g26
S'None'
p95
sg14
S'maintain_speed_lsr_and_prev_opt'
p96
sg29
g96
ssS'USE_SECOND_ORDER'
p97
I01
ss.